ARM GAS  C:\Users\mc_sd\AppData\Local\Temp\cceJYYbF.s 			page 1


   1              		.cpu cortex-m4
   2              		.arch armv7e-m
   3              		.fpu fpv4-sp-d16
   4              		.eabi_attribute 27, 1
   5              		.eabi_attribute 28, 1
   6              		.eabi_attribute 20, 1
   7              		.eabi_attribute 21, 1
   8              		.eabi_attribute 23, 3
   9              		.eabi_attribute 24, 1
  10              		.eabi_attribute 25, 1
  11              		.eabi_attribute 26, 1
  12              		.eabi_attribute 30, 1
  13              		.eabi_attribute 34, 1
  14              		.eabi_attribute 18, 4
  15              		.file	"diskio.c"
  16              		.text
  17              	.Ltext0:
  18              		.cfi_sections	.debug_frame
  19              		.file 1 "Middlewares/Third_Party/FatFs/src/diskio.c"
  20              		.section	.text.disk_status,"ax",%progbits
  21              		.align	1
  22              		.global	disk_status
  23              		.syntax unified
  24              		.thumb
  25              		.thumb_func
  27              	disk_status:
  28              	.LVL0:
  29              	.LFB137:
   1:Middlewares/Third_Party/FatFs/src/diskio.c **** /*-----------------------------------------------------------------------*/
   2:Middlewares/Third_Party/FatFs/src/diskio.c **** /* Low level disk I/O module skeleton for FatFs     (C)ChaN, 2017        */
   3:Middlewares/Third_Party/FatFs/src/diskio.c **** /*                                                                       */
   4:Middlewares/Third_Party/FatFs/src/diskio.c **** /*   Portions COPYRIGHT 2017 STMicroelectronics                          */
   5:Middlewares/Third_Party/FatFs/src/diskio.c **** /*   Portions Copyright (C) 2017, ChaN, all right reserved               */
   6:Middlewares/Third_Party/FatFs/src/diskio.c **** /*-----------------------------------------------------------------------*/
   7:Middlewares/Third_Party/FatFs/src/diskio.c **** /* If a working storage control module is available, it should be        */
   8:Middlewares/Third_Party/FatFs/src/diskio.c **** /* attached to the FatFs via a glue function rather than modifying it.   */
   9:Middlewares/Third_Party/FatFs/src/diskio.c **** /* This is an example of glue functions to attach various existing      */
  10:Middlewares/Third_Party/FatFs/src/diskio.c **** /* storage control modules to the FatFs module with a defined API.       */
  11:Middlewares/Third_Party/FatFs/src/diskio.c **** /*-----------------------------------------------------------------------*/
  12:Middlewares/Third_Party/FatFs/src/diskio.c **** 
  13:Middlewares/Third_Party/FatFs/src/diskio.c **** /* Includes ------------------------------------------------------------------*/
  14:Middlewares/Third_Party/FatFs/src/diskio.c **** #include "diskio.h"
  15:Middlewares/Third_Party/FatFs/src/diskio.c **** #include "ff_gen_drv.h"
  16:Middlewares/Third_Party/FatFs/src/diskio.c **** 
  17:Middlewares/Third_Party/FatFs/src/diskio.c **** #if defined ( __GNUC__ )
  18:Middlewares/Third_Party/FatFs/src/diskio.c **** #ifndef __weak
  19:Middlewares/Third_Party/FatFs/src/diskio.c **** #define __weak __attribute__((weak))
  20:Middlewares/Third_Party/FatFs/src/diskio.c **** #endif
  21:Middlewares/Third_Party/FatFs/src/diskio.c **** #endif
  22:Middlewares/Third_Party/FatFs/src/diskio.c **** 
  23:Middlewares/Third_Party/FatFs/src/diskio.c **** /* Private typedef -----------------------------------------------------------*/
  24:Middlewares/Third_Party/FatFs/src/diskio.c **** /* Private define ------------------------------------------------------------*/
  25:Middlewares/Third_Party/FatFs/src/diskio.c **** /* Private variables ---------------------------------------------------------*/
  26:Middlewares/Third_Party/FatFs/src/diskio.c **** extern Disk_drvTypeDef  disk;
  27:Middlewares/Third_Party/FatFs/src/diskio.c **** 
  28:Middlewares/Third_Party/FatFs/src/diskio.c **** /* Private function prototypes -----------------------------------------------*/
  29:Middlewares/Third_Party/FatFs/src/diskio.c **** /* Private functions ---------------------------------------------------------*/
ARM GAS  C:\Users\mc_sd\AppData\Local\Temp\cceJYYbF.s 			page 2


  30:Middlewares/Third_Party/FatFs/src/diskio.c **** 
  31:Middlewares/Third_Party/FatFs/src/diskio.c **** /**
  32:Middlewares/Third_Party/FatFs/src/diskio.c ****   * @brief  Gets Disk Status
  33:Middlewares/Third_Party/FatFs/src/diskio.c ****   * @param  pdrv: Physical drive number (0..)
  34:Middlewares/Third_Party/FatFs/src/diskio.c ****   * @retval DSTATUS: Operation status
  35:Middlewares/Third_Party/FatFs/src/diskio.c ****   */
  36:Middlewares/Third_Party/FatFs/src/diskio.c **** DSTATUS disk_status (
  37:Middlewares/Third_Party/FatFs/src/diskio.c **** 	BYTE pdrv		/* Physical drive number to identify the drive */
  38:Middlewares/Third_Party/FatFs/src/diskio.c **** )
  39:Middlewares/Third_Party/FatFs/src/diskio.c **** {
  30              		.loc 1 39 1 view -0
  31              		.cfi_startproc
  32              		@ args = 0, pretend = 0, frame = 0
  33              		@ frame_needed = 0, uses_anonymous_args = 0
  34              		.loc 1 39 1 is_stmt 0 view .LVU1
  35 0000 08B5     		push	{r3, lr}
  36              		.cfi_def_cfa_offset 8
  37              		.cfi_offset 3, -8
  38              		.cfi_offset 14, -4
  40:Middlewares/Third_Party/FatFs/src/diskio.c ****   DSTATUS stat;
  39              		.loc 1 40 3 is_stmt 1 view .LVU2
  41:Middlewares/Third_Party/FatFs/src/diskio.c **** 
  42:Middlewares/Third_Party/FatFs/src/diskio.c ****   stat = disk.drv[pdrv]->disk_status(disk.lun[pdrv]);
  40              		.loc 1 42 3 view .LVU3
  41              		.loc 1 42 18 is_stmt 0 view .LVU4
  42 0002 044B     		ldr	r3, .L3
  43 0004 03EB8002 		add	r2, r3, r0, lsl #2
  44 0008 5268     		ldr	r2, [r2, #4]
  45              		.loc 1 42 24 view .LVU5
  46 000a 5268     		ldr	r2, [r2, #4]
  47              		.loc 1 42 10 view .LVU6
  48 000c 0344     		add	r3, r3, r0
  49 000e 187A     		ldrb	r0, [r3, #8]	@ zero_extendqisi2
  50              	.LVL1:
  51              		.loc 1 42 10 view .LVU7
  52 0010 9047     		blx	r2
  53              	.LVL2:
  43:Middlewares/Third_Party/FatFs/src/diskio.c ****   return stat;
  54              		.loc 1 43 3 is_stmt 1 view .LVU8
  44:Middlewares/Third_Party/FatFs/src/diskio.c **** }
  55              		.loc 1 44 1 is_stmt 0 view .LVU9
  56 0012 08BD     		pop	{r3, pc}
  57              	.L4:
  58              		.align	2
  59              	.L3:
  60 0014 00000000 		.word	disk
  61              		.cfi_endproc
  62              	.LFE137:
  64              		.section	.text.disk_initialize,"ax",%progbits
  65              		.align	1
  66              		.global	disk_initialize
  67              		.syntax unified
  68              		.thumb
  69              		.thumb_func
  71              	disk_initialize:
  72              	.LVL3:
  73              	.LFB138:
ARM GAS  C:\Users\mc_sd\AppData\Local\Temp\cceJYYbF.s 			page 3


  45:Middlewares/Third_Party/FatFs/src/diskio.c **** 
  46:Middlewares/Third_Party/FatFs/src/diskio.c **** /**
  47:Middlewares/Third_Party/FatFs/src/diskio.c ****   * @brief  Initializes a Drive
  48:Middlewares/Third_Party/FatFs/src/diskio.c ****   * @param  pdrv: Physical drive number (0..)
  49:Middlewares/Third_Party/FatFs/src/diskio.c ****   * @retval DSTATUS: Operation status
  50:Middlewares/Third_Party/FatFs/src/diskio.c ****   */
  51:Middlewares/Third_Party/FatFs/src/diskio.c **** DSTATUS disk_initialize (
  52:Middlewares/Third_Party/FatFs/src/diskio.c **** 	BYTE pdrv				/* Physical drive nmuber to identify the drive */
  53:Middlewares/Third_Party/FatFs/src/diskio.c **** )
  54:Middlewares/Third_Party/FatFs/src/diskio.c **** {
  74              		.loc 1 54 1 is_stmt 1 view -0
  75              		.cfi_startproc
  76              		@ args = 0, pretend = 0, frame = 0
  77              		@ frame_needed = 0, uses_anonymous_args = 0
  55:Middlewares/Third_Party/FatFs/src/diskio.c ****   DSTATUS stat = RES_OK;
  78              		.loc 1 55 3 view .LVU11
  56:Middlewares/Third_Party/FatFs/src/diskio.c **** 
  57:Middlewares/Third_Party/FatFs/src/diskio.c ****   if(disk.is_initialized[pdrv] == 0)
  79              		.loc 1 57 3 view .LVU12
  80              		.loc 1 57 25 is_stmt 0 view .LVU13
  81 0000 094B     		ldr	r3, .L12
  82 0002 1B5C     		ldrb	r3, [r3, r0]	@ zero_extendqisi2
  83              		.loc 1 57 5 view .LVU14
  84 0004 73B9     		cbnz	r3, .L7
  54:Middlewares/Third_Party/FatFs/src/diskio.c ****   DSTATUS stat = RES_OK;
  85              		.loc 1 54 1 view .LVU15
  86 0006 10B5     		push	{r4, lr}
  87              		.cfi_def_cfa_offset 8
  88              		.cfi_offset 4, -8
  89              		.cfi_offset 14, -4
  90 0008 0446     		mov	r4, r0
  58:Middlewares/Third_Party/FatFs/src/diskio.c ****   {
  59:Middlewares/Third_Party/FatFs/src/diskio.c ****     stat = disk.drv[pdrv]->disk_initialize(disk.lun[pdrv]);
  91              		.loc 1 59 5 is_stmt 1 view .LVU16
  92              		.loc 1 59 20 is_stmt 0 view .LVU17
  93 000a 074B     		ldr	r3, .L12
  94 000c 03EB8002 		add	r2, r3, r0, lsl #2
  95 0010 5268     		ldr	r2, [r2, #4]
  96              		.loc 1 59 26 view .LVU18
  97 0012 1268     		ldr	r2, [r2]
  98              		.loc 1 59 12 view .LVU19
  99 0014 0344     		add	r3, r3, r0
 100 0016 187A     		ldrb	r0, [r3, #8]	@ zero_extendqisi2
 101              	.LVL4:
 102              		.loc 1 59 12 view .LVU20
 103 0018 9047     		blx	r2
 104              	.LVL5:
  60:Middlewares/Third_Party/FatFs/src/diskio.c ****     if(stat == RES_OK)
 105              		.loc 1 60 5 is_stmt 1 view .LVU21
 106              		.loc 1 60 7 is_stmt 0 view .LVU22
 107 001a 10B9     		cbnz	r0, .L6
  61:Middlewares/Third_Party/FatFs/src/diskio.c ****     {
  62:Middlewares/Third_Party/FatFs/src/diskio.c ****       disk.is_initialized[pdrv] = 1;
 108              		.loc 1 62 7 is_stmt 1 view .LVU23
 109              		.loc 1 62 33 is_stmt 0 view .LVU24
 110 001c 024B     		ldr	r3, .L12
 111 001e 0122     		movs	r2, #1
ARM GAS  C:\Users\mc_sd\AppData\Local\Temp\cceJYYbF.s 			page 4


 112 0020 1A55     		strb	r2, [r3, r4]
 113              	.L6:
  63:Middlewares/Third_Party/FatFs/src/diskio.c ****     }
  64:Middlewares/Third_Party/FatFs/src/diskio.c ****   }
  65:Middlewares/Third_Party/FatFs/src/diskio.c ****   return stat;
 114              		.loc 1 65 3 is_stmt 1 view .LVU25
  66:Middlewares/Third_Party/FatFs/src/diskio.c **** }
 115              		.loc 1 66 1 is_stmt 0 view .LVU26
 116 0022 10BD     		pop	{r4, pc}
 117              	.LVL6:
 118              	.L7:
 119              		.cfi_def_cfa_offset 0
 120              		.cfi_restore 4
 121              		.cfi_restore 14
  55:Middlewares/Third_Party/FatFs/src/diskio.c **** 
 122              		.loc 1 55 11 view .LVU27
 123 0024 0020     		movs	r0, #0
 124              	.LVL7:
  65:Middlewares/Third_Party/FatFs/src/diskio.c **** }
 125              		.loc 1 65 3 is_stmt 1 view .LVU28
 126              		.loc 1 66 1 is_stmt 0 view .LVU29
 127 0026 7047     		bx	lr
 128              	.L13:
 129              		.align	2
 130              	.L12:
 131 0028 00000000 		.word	disk
 132              		.cfi_endproc
 133              	.LFE138:
 135              		.section	.text.disk_read,"ax",%progbits
 136              		.align	1
 137              		.global	disk_read
 138              		.syntax unified
 139              		.thumb
 140              		.thumb_func
 142              	disk_read:
 143              	.LVL8:
 144              	.LFB139:
  67:Middlewares/Third_Party/FatFs/src/diskio.c **** 
  68:Middlewares/Third_Party/FatFs/src/diskio.c **** /**
  69:Middlewares/Third_Party/FatFs/src/diskio.c ****   * @brief  Reads Sector(s)
  70:Middlewares/Third_Party/FatFs/src/diskio.c ****   * @param  pdrv: Physical drive number (0..)
  71:Middlewares/Third_Party/FatFs/src/diskio.c ****   * @param  *buff: Data buffer to store read data
  72:Middlewares/Third_Party/FatFs/src/diskio.c ****   * @param  sector: Sector address (LBA)
  73:Middlewares/Third_Party/FatFs/src/diskio.c ****   * @param  count: Number of sectors to read (1..128)
  74:Middlewares/Third_Party/FatFs/src/diskio.c ****   * @retval DRESULT: Operation result
  75:Middlewares/Third_Party/FatFs/src/diskio.c ****   */
  76:Middlewares/Third_Party/FatFs/src/diskio.c **** DRESULT disk_read (
  77:Middlewares/Third_Party/FatFs/src/diskio.c **** 	BYTE pdrv,		/* Physical drive nmuber to identify the drive */
  78:Middlewares/Third_Party/FatFs/src/diskio.c **** 	BYTE *buff,		/* Data buffer to store read data */
  79:Middlewares/Third_Party/FatFs/src/diskio.c **** 	DWORD sector,	        /* Sector address in LBA */
  80:Middlewares/Third_Party/FatFs/src/diskio.c **** 	UINT count		/* Number of sectors to read */
  81:Middlewares/Third_Party/FatFs/src/diskio.c **** )
  82:Middlewares/Third_Party/FatFs/src/diskio.c **** {
 145              		.loc 1 82 1 is_stmt 1 view -0
 146              		.cfi_startproc
 147              		@ args = 0, pretend = 0, frame = 0
 148              		@ frame_needed = 0, uses_anonymous_args = 0
ARM GAS  C:\Users\mc_sd\AppData\Local\Temp\cceJYYbF.s 			page 5


 149              		.loc 1 82 1 is_stmt 0 view .LVU31
 150 0000 38B5     		push	{r3, r4, r5, lr}
 151              		.cfi_def_cfa_offset 16
 152              		.cfi_offset 3, -16
 153              		.cfi_offset 4, -12
 154              		.cfi_offset 5, -8
 155              		.cfi_offset 14, -4
  83:Middlewares/Third_Party/FatFs/src/diskio.c ****   DRESULT res;
 156              		.loc 1 83 3 is_stmt 1 view .LVU32
  84:Middlewares/Third_Party/FatFs/src/diskio.c **** 
  85:Middlewares/Third_Party/FatFs/src/diskio.c ****   res = disk.drv[pdrv]->disk_read(disk.lun[pdrv], buff, sector, count);
 157              		.loc 1 85 3 view .LVU33
 158              		.loc 1 85 17 is_stmt 0 view .LVU34
 159 0002 044C     		ldr	r4, .L16
 160 0004 04EB8005 		add	r5, r4, r0, lsl #2
 161 0008 6D68     		ldr	r5, [r5, #4]
 162              		.loc 1 85 23 view .LVU35
 163 000a AD68     		ldr	r5, [r5, #8]
 164              		.loc 1 85 9 view .LVU36
 165 000c 0444     		add	r4, r4, r0
 166 000e 207A     		ldrb	r0, [r4, #8]	@ zero_extendqisi2
 167              	.LVL9:
 168              		.loc 1 85 9 view .LVU37
 169 0010 A847     		blx	r5
 170              	.LVL10:
  86:Middlewares/Third_Party/FatFs/src/diskio.c ****   return res;
 171              		.loc 1 86 3 is_stmt 1 view .LVU38
  87:Middlewares/Third_Party/FatFs/src/diskio.c **** }
 172              		.loc 1 87 1 is_stmt 0 view .LVU39
 173 0012 38BD     		pop	{r3, r4, r5, pc}
 174              	.L17:
 175              		.align	2
 176              	.L16:
 177 0014 00000000 		.word	disk
 178              		.cfi_endproc
 179              	.LFE139:
 181              		.section	.text.disk_write,"ax",%progbits
 182              		.align	1
 183              		.global	disk_write
 184              		.syntax unified
 185              		.thumb
 186              		.thumb_func
 188              	disk_write:
 189              	.LVL11:
 190              	.LFB140:
  88:Middlewares/Third_Party/FatFs/src/diskio.c **** 
  89:Middlewares/Third_Party/FatFs/src/diskio.c **** /**
  90:Middlewares/Third_Party/FatFs/src/diskio.c ****   * @brief  Writes Sector(s)
  91:Middlewares/Third_Party/FatFs/src/diskio.c ****   * @param  pdrv: Physical drive number (0..)
  92:Middlewares/Third_Party/FatFs/src/diskio.c ****   * @param  *buff: Data to be written
  93:Middlewares/Third_Party/FatFs/src/diskio.c ****   * @param  sector: Sector address (LBA)
  94:Middlewares/Third_Party/FatFs/src/diskio.c ****   * @param  count: Number of sectors to write (1..128)
  95:Middlewares/Third_Party/FatFs/src/diskio.c ****   * @retval DRESULT: Operation result
  96:Middlewares/Third_Party/FatFs/src/diskio.c ****   */
  97:Middlewares/Third_Party/FatFs/src/diskio.c **** #if _USE_WRITE == 1
  98:Middlewares/Third_Party/FatFs/src/diskio.c **** DRESULT disk_write (
  99:Middlewares/Third_Party/FatFs/src/diskio.c **** 	BYTE pdrv,		/* Physical drive nmuber to identify the drive */
ARM GAS  C:\Users\mc_sd\AppData\Local\Temp\cceJYYbF.s 			page 6


 100:Middlewares/Third_Party/FatFs/src/diskio.c **** 	const BYTE *buff,	/* Data to be written */
 101:Middlewares/Third_Party/FatFs/src/diskio.c **** 	DWORD sector,		/* Sector address in LBA */
 102:Middlewares/Third_Party/FatFs/src/diskio.c **** 	UINT count        	/* Number of sectors to write */
 103:Middlewares/Third_Party/FatFs/src/diskio.c **** )
 104:Middlewares/Third_Party/FatFs/src/diskio.c **** {
 191              		.loc 1 104 1 is_stmt 1 view -0
 192              		.cfi_startproc
 193              		@ args = 0, pretend = 0, frame = 0
 194              		@ frame_needed = 0, uses_anonymous_args = 0
 195              		.loc 1 104 1 is_stmt 0 view .LVU41
 196 0000 38B5     		push	{r3, r4, r5, lr}
 197              		.cfi_def_cfa_offset 16
 198              		.cfi_offset 3, -16
 199              		.cfi_offset 4, -12
 200              		.cfi_offset 5, -8
 201              		.cfi_offset 14, -4
 105:Middlewares/Third_Party/FatFs/src/diskio.c ****   DRESULT res;
 202              		.loc 1 105 3 is_stmt 1 view .LVU42
 106:Middlewares/Third_Party/FatFs/src/diskio.c **** 
 107:Middlewares/Third_Party/FatFs/src/diskio.c ****   res = disk.drv[pdrv]->disk_write(disk.lun[pdrv], buff, sector, count);
 203              		.loc 1 107 3 view .LVU43
 204              		.loc 1 107 17 is_stmt 0 view .LVU44
 205 0002 044C     		ldr	r4, .L20
 206 0004 04EB8005 		add	r5, r4, r0, lsl #2
 207 0008 6D68     		ldr	r5, [r5, #4]
 208              		.loc 1 107 23 view .LVU45
 209 000a ED68     		ldr	r5, [r5, #12]
 210              		.loc 1 107 9 view .LVU46
 211 000c 0444     		add	r4, r4, r0
 212 000e 207A     		ldrb	r0, [r4, #8]	@ zero_extendqisi2
 213              	.LVL12:
 214              		.loc 1 107 9 view .LVU47
 215 0010 A847     		blx	r5
 216              	.LVL13:
 108:Middlewares/Third_Party/FatFs/src/diskio.c ****   return res;
 217              		.loc 1 108 3 is_stmt 1 view .LVU48
 109:Middlewares/Third_Party/FatFs/src/diskio.c **** }
 218              		.loc 1 109 1 is_stmt 0 view .LVU49
 219 0012 38BD     		pop	{r3, r4, r5, pc}
 220              	.L21:
 221              		.align	2
 222              	.L20:
 223 0014 00000000 		.word	disk
 224              		.cfi_endproc
 225              	.LFE140:
 227              		.section	.text.disk_ioctl,"ax",%progbits
 228              		.align	1
 229              		.global	disk_ioctl
 230              		.syntax unified
 231              		.thumb
 232              		.thumb_func
 234              	disk_ioctl:
 235              	.LVL14:
 236              	.LFB141:
 110:Middlewares/Third_Party/FatFs/src/diskio.c **** #endif /* _USE_WRITE == 1 */
 111:Middlewares/Third_Party/FatFs/src/diskio.c **** 
 112:Middlewares/Third_Party/FatFs/src/diskio.c **** /**
ARM GAS  C:\Users\mc_sd\AppData\Local\Temp\cceJYYbF.s 			page 7


 113:Middlewares/Third_Party/FatFs/src/diskio.c ****   * @brief  I/O control operation
 114:Middlewares/Third_Party/FatFs/src/diskio.c ****   * @param  pdrv: Physical drive number (0..)
 115:Middlewares/Third_Party/FatFs/src/diskio.c ****   * @param  cmd: Control code
 116:Middlewares/Third_Party/FatFs/src/diskio.c ****   * @param  *buff: Buffer to send/receive control data
 117:Middlewares/Third_Party/FatFs/src/diskio.c ****   * @retval DRESULT: Operation result
 118:Middlewares/Third_Party/FatFs/src/diskio.c ****   */
 119:Middlewares/Third_Party/FatFs/src/diskio.c **** #if _USE_IOCTL == 1
 120:Middlewares/Third_Party/FatFs/src/diskio.c **** DRESULT disk_ioctl (
 121:Middlewares/Third_Party/FatFs/src/diskio.c **** 	BYTE pdrv,		/* Physical drive nmuber (0..) */
 122:Middlewares/Third_Party/FatFs/src/diskio.c **** 	BYTE cmd,		/* Control code */
 123:Middlewares/Third_Party/FatFs/src/diskio.c **** 	void *buff		/* Buffer to send/receive control data */
 124:Middlewares/Third_Party/FatFs/src/diskio.c **** )
 125:Middlewares/Third_Party/FatFs/src/diskio.c **** {
 237              		.loc 1 125 1 is_stmt 1 view -0
 238              		.cfi_startproc
 239              		@ args = 0, pretend = 0, frame = 0
 240              		@ frame_needed = 0, uses_anonymous_args = 0
 241              		.loc 1 125 1 is_stmt 0 view .LVU51
 242 0000 10B5     		push	{r4, lr}
 243              		.cfi_def_cfa_offset 8
 244              		.cfi_offset 4, -8
 245              		.cfi_offset 14, -4
 126:Middlewares/Third_Party/FatFs/src/diskio.c ****   DRESULT res;
 246              		.loc 1 126 3 is_stmt 1 view .LVU52
 127:Middlewares/Third_Party/FatFs/src/diskio.c **** 
 128:Middlewares/Third_Party/FatFs/src/diskio.c ****   res = disk.drv[pdrv]->disk_ioctl(disk.lun[pdrv], cmd, buff);
 247              		.loc 1 128 3 view .LVU53
 248              		.loc 1 128 17 is_stmt 0 view .LVU54
 249 0002 044B     		ldr	r3, .L24
 250 0004 03EB8004 		add	r4, r3, r0, lsl #2
 251 0008 6468     		ldr	r4, [r4, #4]
 252              		.loc 1 128 23 view .LVU55
 253 000a 2469     		ldr	r4, [r4, #16]
 254              		.loc 1 128 9 view .LVU56
 255 000c 0344     		add	r3, r3, r0
 256 000e 187A     		ldrb	r0, [r3, #8]	@ zero_extendqisi2
 257              	.LVL15:
 258              		.loc 1 128 9 view .LVU57
 259 0010 A047     		blx	r4
 260              	.LVL16:
 129:Middlewares/Third_Party/FatFs/src/diskio.c ****   return res;
 261              		.loc 1 129 3 is_stmt 1 view .LVU58
 130:Middlewares/Third_Party/FatFs/src/diskio.c **** }
 262              		.loc 1 130 1 is_stmt 0 view .LVU59
 263 0012 10BD     		pop	{r4, pc}
 264              	.L25:
 265              		.align	2
 266              	.L24:
 267 0014 00000000 		.word	disk
 268              		.cfi_endproc
 269              	.LFE141:
 271              		.section	.text.get_fattime,"ax",%progbits
 272              		.align	1
 273              		.weak	get_fattime
 274              		.syntax unified
 275              		.thumb
 276              		.thumb_func
ARM GAS  C:\Users\mc_sd\AppData\Local\Temp\cceJYYbF.s 			page 8


 278              	get_fattime:
 279              	.LFB142:
 131:Middlewares/Third_Party/FatFs/src/diskio.c **** #endif /* _USE_IOCTL == 1 */
 132:Middlewares/Third_Party/FatFs/src/diskio.c **** 
 133:Middlewares/Third_Party/FatFs/src/diskio.c **** /**
 134:Middlewares/Third_Party/FatFs/src/diskio.c ****   * @brief  Gets Time from RTC
 135:Middlewares/Third_Party/FatFs/src/diskio.c ****   * @param  None
 136:Middlewares/Third_Party/FatFs/src/diskio.c ****   * @retval Time in DWORD
 137:Middlewares/Third_Party/FatFs/src/diskio.c ****   */
 138:Middlewares/Third_Party/FatFs/src/diskio.c **** __weak DWORD get_fattime (void)
 139:Middlewares/Third_Party/FatFs/src/diskio.c **** {
 280              		.loc 1 139 1 is_stmt 1 view -0
 281              		.cfi_startproc
 282              		@ args = 0, pretend = 0, frame = 0
 283              		@ frame_needed = 0, uses_anonymous_args = 0
 284              		@ link register save eliminated.
 140:Middlewares/Third_Party/FatFs/src/diskio.c ****   return 0;
 285              		.loc 1 140 3 view .LVU61
 141:Middlewares/Third_Party/FatFs/src/diskio.c **** }
 286              		.loc 1 141 1 is_stmt 0 view .LVU62
 287 0000 0020     		movs	r0, #0
 288 0002 7047     		bx	lr
 289              		.cfi_endproc
 290              	.LFE142:
 292              		.text
 293              	.Letext0:
 294              		.file 2 "Middlewares/Third_Party/FatFs/src/integer.h"
 295              		.file 3 "Middlewares/Third_Party/FatFs/src/diskio.h"
 296              		.file 4 "C:/Users/mc_sd/AppData/Roaming/Code/User/globalStorage/bmd.stm32-for-vscode/@xpack-dev-to
 297              		.file 5 "C:/Users/mc_sd/AppData/Roaming/Code/User/globalStorage/bmd.stm32-for-vscode/@xpack-dev-to
 298              		.file 6 "Middlewares/Third_Party/FatFs/src/ff_gen_drv.h"
ARM GAS  C:\Users\mc_sd\AppData\Local\Temp\cceJYYbF.s 			page 9

